target datalayout = "e-m:e-p270:32:32-p271:32:32-p272:64:64-i64:64-i128:128-f80:128-n8:16:32:64-S128"
target triple = "x86_64-pc-linux-gnu"

%struct.UConverter = type { ptr, ptr, ptr, ptr, ptr, ptr, ptr, i32, i8, i8, i8, i8, i8, [7 x i8], i32, i32, i32, i32, i8, i8, i8, i8, i8, i8, i8, i8, [8 x i8], [32 x i8], [2 x i16], [2 x i16], [32 x i16], i32, [19 x i16], [31 x i8], i8, i8, i8, i32 }
%struct.UConverterDataISO2022 = type { [10 x ptr], ptr, i32, %struct.ISO2022State, %struct.ISO2022State, i32, i32, i8, [30 x i8], [3 x i8] }
%struct.ISO2022State = type { [4 x i8], i8, i8 }
%struct.cloneStruct = type { %struct.UConverter, %struct.UConverter, %struct.UConverterDataISO2022 }

; Function Attrs: inlinehint mustprogress nounwind uwtable
define internal noundef signext i8 @_ZL9U_FAILURE10UErrorCode(i32 noundef %0) #9 {
  %2 = alloca i32, align 4
  store i32 %0, ptr %2, align 4, !tbaa !28
  %3 = load i32, ptr %2, align 4, !tbaa !28
  %4 = icmp sgt i32 %3, 0
  %5 = zext i1 %4 to i8
  ret i8 %5
}

; Function Attrs: mustprogress uwtable
define internal noundef ptr @_ZL19_ISO_2022_SafeClonePK10UConverterPvPiP10UErrorCode(ptr noundef %0, ptr noundef %1, ptr noundef %2, ptr noundef %3) #0 {
  %5 = alloca ptr, align 8
  %6 = alloca ptr, align 8
  %7 = alloca ptr, align 8
  %8 = alloca ptr, align 8
  %9 = alloca ptr, align 8
  %10 = alloca ptr, align 8
  %11 = alloca ptr, align 8
  %12 = alloca i32, align 4
  %13 = alloca i32, align 4
  %14 = alloca i32, align 4
  store ptr %0, ptr %6, align 8, !tbaa !3
  store ptr %1, ptr %7, align 8, !tbaa !8
  store ptr %2, ptr %8, align 8, !tbaa !68
  store ptr %3, ptr %9, align 8, !tbaa !8
  call void @llvm.lifetime.start.p0(i64 8, ptr %10) #11
  call void @llvm.lifetime.start.p0(i64 8, ptr %11) #11
  call void @llvm.lifetime.start.p0(i64 4, ptr %12) #11
  call void @llvm.lifetime.start.p0(i64 4, ptr %13) #11
  %15 = load ptr, ptr %9, align 8, !tbaa !8
  %16 = load i32, ptr %15, align 4, !tbaa !28
  %17 = call noundef signext i8 @_ZL9U_FAILURE10UErrorCode(i32 noundef %16)
  %18 = icmp ne i8 %17, 0
  br i1 %18, label %19, label %20

19:                                               ; preds = %4
  store ptr null, ptr %5, align 8
  store i32 1, ptr %14, align 4
  br label %92

20:                                               ; preds = %4
  %21 = load ptr, ptr %8, align 8, !tbaa !68
  %22 = load i32, ptr %21, align 4, !tbaa !25
  %23 = icmp eq i32 %22, 0
  br i1 %23, label %24, label %26

24:                                               ; preds = %20
  %25 = load ptr, ptr %8, align 8, !tbaa !68
  store i32 728, ptr %25, align 4, !tbaa !25
  store ptr null, ptr %5, align 8
  store i32 1, ptr %14, align 4
  br label %92

26:                                               ; preds = %20
  %27 = load ptr, ptr %6, align 8, !tbaa !3
  %28 = getelementptr inbounds nuw %struct.UConverter, ptr %27, i32 0, i32 2
  %29 = load ptr, ptr %28, align 8, !tbaa !9
  store ptr %29, ptr %11, align 8, !tbaa !8
  %30 = load ptr, ptr %7, align 8, !tbaa !8
  store ptr %30, ptr %10, align 8, !tbaa !69
  br label %31

31:                                               ; preds = %26
  %32 = load ptr, ptr %10, align 8, !tbaa !69
  %33 = getelementptr inbounds nuw %struct.cloneStruct, ptr %32, i32 0, i32 2
  %34 = load ptr, ptr %11, align 8, !tbaa !8
  call void @llvm.memcpy.p0.p0.i64(ptr align 8 %33, ptr align 8 %34, i64 152, i1 false)
  br label %35

35:                                               ; preds = %31
  br label %36

36:                                               ; preds = %35
  %37 = load ptr, ptr %10, align 8, !tbaa !69
  %38 = getelementptr inbounds nuw %struct.cloneStruct, ptr %37, i32 0, i32 2
  %39 = load ptr, ptr %10, align 8, !tbaa !69
  %40 = getelementptr inbounds nuw %struct.cloneStruct, ptr %39, i32 0, i32 0
  %41 = getelementptr inbounds nuw %struct.UConverter, ptr %40, i32 0, i32 2
  store ptr %38, ptr %41, align 8, !tbaa !71
  %42 = load ptr, ptr %10, align 8, !tbaa !69
  %43 = getelementptr inbounds nuw %struct.cloneStruct, ptr %42, i32 0, i32 0
  %44 = getelementptr inbounds nuw %struct.UConverter, ptr %43, i32 0, i32 10
  store i8 1, ptr %44, align 2, !tbaa !73
  %45 = load ptr, ptr %11, align 8, !tbaa !8
  %46 = getelementptr inbounds nuw %struct.UConverterDataISO2022, ptr %45, i32 0, i32 1
  %47 = load ptr, ptr %46, align 8, !tbaa !36
  %48 = icmp ne ptr %47, null
  br i1 %48, label %49, label %66

49:                                               ; preds = %36
  store i32 288, ptr %13, align 4, !tbaa !25
  %50 = load ptr, ptr %11, align 8, !tbaa !8
  %51 = getelementptr inbounds nuw %struct.UConverterDataISO2022, ptr %50, i32 0, i32 1
  %52 = load ptr, ptr %51, align 8, !tbaa !36
  %53 = load ptr, ptr %10, align 8, !tbaa !69
  %54 = getelementptr inbounds nuw %struct.cloneStruct, ptr %53, i32 0, i32 1
  %55 = load ptr, ptr %9, align 8, !tbaa !8
  %56 = call ptr @ucnv_safeClone_77(ptr noundef %52, ptr noundef %54, ptr noundef %13, ptr noundef %55)
  %57 = load ptr, ptr %10, align 8, !tbaa !69
  %58 = getelementptr inbounds nuw %struct.cloneStruct, ptr %57, i32 0, i32 2
  %59 = getelementptr inbounds nuw %struct.UConverterDataISO2022, ptr %58, i32 0, i32 1
  store ptr %56, ptr %59, align 8, !tbaa !74
  %60 = load ptr, ptr %9, align 8, !tbaa !8
  %61 = load i32, ptr %60, align 4, !tbaa !28
  %62 = call noundef signext i8 @_ZL9U_FAILURE10UErrorCode(i32 noundef %61)
  %63 = icmp ne i8 %62, 0
  br i1 %63, label %64, label %65

64:                                               ; preds = %49
  store ptr null, ptr %5, align 8
  store i32 1, ptr %14, align 4
  br label %92

65:                                               ; preds = %49
  br label %66

66:                                               ; preds = %65, %36
  store i32 0, ptr %12, align 4, !tbaa !25
  br label %67

67:                                               ; preds = %86, %66
  %68 = load i32, ptr %12, align 4, !tbaa !25
  %69 = icmp slt i32 %68, 10
  br i1 %69, label %70, label %89

70:                                               ; preds = %67
  %71 = load ptr, ptr %11, align 8, !tbaa !8
  %72 = getelementptr inbounds nuw %struct.UConverterDataISO2022, ptr %71, i32 0, i32 0
  %73 = load i32, ptr %12, align 4, !tbaa !25
  %74 = sext i32 %73 to i64
  %75 = getelementptr inbounds [10 x ptr], ptr %72, i64 0, i64 %74
  %76 = load ptr, ptr %75, align 8, !tbaa !31
  %77 = icmp ne ptr %76, null
  br i1 %77, label %78, label %85

78:                                               ; preds = %70
  %79 = load ptr, ptr %11, align 8, !tbaa !8
  %80 = getelementptr inbounds nuw %struct.UConverterDataISO2022, ptr %79, i32 0, i32 0
  %81 = load i32, ptr %12, align 4, !tbaa !25
  %82 = sext i32 %81 to i64
  %83 = getelementptr inbounds [10 x ptr], ptr %80, i64 0, i64 %82
  %84 = load ptr, ptr %83, align 8, !tbaa !31
  call void @ucnv_incrementRefCount_77(ptr noundef %84)
  br label %85

85:                                               ; preds = %78, %70
  br label %86

86:                                               ; preds = %85
  %87 = load i32, ptr %12, align 4, !tbaa !25
  %88 = add nsw i32 %87, 1
  store i32 %88, ptr %12, align 4, !tbaa !25
  br label %67, !llvm.loop !75

89:                                               ; preds = %67
  %90 = load ptr, ptr %10, align 8, !tbaa !69
  %91 = getelementptr inbounds nuw %struct.cloneStruct, ptr %90, i32 0, i32 0
  store ptr %91, ptr %5, align 8
  store i32 1, ptr %14, align 4
  br label %92

92:                                               ; preds = %89, %64, %24, %19
  call void @llvm.lifetime.end.p0(i64 4, ptr %13) #11
  call void @llvm.lifetime.end.p0(i64 4, ptr %12) #11
  call void @llvm.lifetime.end.p0(i64 8, ptr %11) #11
  call void @llvm.lifetime.end.p0(i64 8, ptr %10) #11
  %93 = load ptr, ptr %5, align 8
  ret ptr %93
}