; Function Attrs: mustprogress uwtable
define internal noundef ptr @_ZL19_ISO_2022_SafeClonePK10UConverterPvPiP10UErrorCode(ptr noundef readonly captures(none) %0, ptr noundef %1, ptr noundef captures(none) %2, ptr noundef %3) #0 {
  %5 = alloca i32, align 4
  call void @llvm.lifetime.start.p0(i64 4, ptr nonnull %5) #12
  %6 = load i32, ptr %3, align 4, !tbaa !24
  %7 = icmp slt i32 %6, 1
  br i1 %7, label %8, label %.loopexit

8:                                                ; preds = %4
  %9 = load i32, ptr %2, align 4, !tbaa !56
  %10 = icmp eq i32 %9, 0
  br i1 %10, label %11, label %12

11:                                               ; preds = %8
  store i32 728, ptr %2, align 4, !tbaa !56
  br label %.loopexit

12:                                               ; preds = %8
  %13 = getelementptr inbounds nuw i8, ptr %0, i64 16
  %14 = load ptr, ptr %13, align 8, !tbaa !3
  %15 = getelementptr inbounds nuw i8, ptr %1, i64 576
  tail call void @llvm.memcpy.p0.p0.i64(ptr noundef nonnull align 8 dereferenceable(152) %15, ptr noundef nonnull align 8 dereferenceable(152) %14, i64 152, i1 false)
  %16 = getelementptr inbounds nuw i8, ptr %1, i64 16
  store ptr %15, ptr %16, align 8, !tbaa !57
  %17 = getelementptr inbounds nuw i8, ptr %1, i64 62
  store i8 1, ptr %17, align 2, !tbaa !59
  %18 = getelementptr inbounds nuw i8, ptr %14, i64 80
  %19 = load ptr, ptr %18, align 8, !tbaa !28
  %.not25 = icmp eq ptr %19, null
  br i1 %.not25, label %.preheader, label %20

20:                                               ; preds = %12
  store i32 288, ptr %5, align 4, !tbaa !56
  %21 = getelementptr inbounds nuw i8, ptr %1, i64 288
  %22 = call ptr @ucnv_safeClone_77(ptr noundef nonnull %19, ptr noundef nonnull %21, ptr noundef nonnull %5, ptr noundef nonnull %3)
  %23 = getelementptr inbounds nuw i8, ptr %1, i64 656
  store ptr %22, ptr %23, align 8, !tbaa !60
  %24 = load i32, ptr %3, align 4, !tbaa !24
  %25 = icmp slt i32 %24, 1
  br i1 %25, label %.preheader, label %.loopexit

.preheader:                                       ; preds = %20, %12
  br label %26

26:                                               ; preds = %.preheader, %30
  %indvars.iv = phi i64 [ %indvars.iv.next, %30 ], [ 0, %.preheader ]
  %27 = getelementptr inbounds nuw [10 x ptr], ptr %14, i64 0, i64 %indvars.iv
  %28 = load ptr, ptr %27, align 8, !tbaa !26
  %.not27 = icmp eq ptr %28, null
  br i1 %.not27, label %30, label %29

29:                                               ; preds = %26
  call void @ucnv_incrementRefCount_77(ptr noundef nonnull %28)
  br label %30

30:                                               ; preds = %26, %29
  %indvars.iv.next = add nuw nsw i64 %indvars.iv, 1
  %exitcond.not = icmp eq i64 %indvars.iv.next, 10
  br i1 %exitcond.not, label %.loopexit, label %26, !llvm.loop !61

.loopexit:                                        ; preds = %30, %20, %4, %11
  %.023 = phi ptr [ null, %11 ], [ null, %4 ], [ null, %20 ], [ %1, %30 ]
  call void @llvm.lifetime.end.p0(i64 4, ptr nonnull %5) #12
  ret ptr %.023
}